; Function Attrs: mustprogress nounwind uwtable
define noundef i64 @JVM_CurrentTimeMillis(ptr nocapture noundef readnone %0, ptr nocapture noundef readnone %1) local_unnamed_addr #0 {
  %3 = load volatile i8, ptr @_ZN7VM_Exit10_vm_exitedE, align 1
  %4 = trunc i8 %3 to i1
  br i1 %4, label %5, label %_ZN7VM_Exit18block_if_vm_exitedEv.exit

5:                                                ; preds = %2
  tail call void @_ZN7VM_Exit17wait_if_vm_exitedEv() #16
  br label %_ZN7VM_Exit18block_if_vm_exitedEv.exit

_ZN7VM_Exit18block_if_vm_exitedEv.exit:           ; preds = %2, %5
  %6 = tail call noundef i64 @_ZN2os14javaTimeMillisEv() #16
  ret i64 %6
}